; Function Attrs: mustprogress uwtable
define noundef double @_ZNK8QuantLib18OptionletStripper112switchStrikeEv(ptr noundef nonnull align 8 dereferenceable(461) %this) local_unnamed_addr #8 align 2 {
entry:
  %floatingSwitchStrike_ = getelementptr inbounds nuw i8, ptr %this, i64 432
  %0 = load i8, ptr %floatingSwitchStrike_, align 8, !tbaa !52, !range !26, !noundef !27
  %loadedv = trunc nuw i8 %0 to i1
  br i1 %loadedv, label %if.then, label %if.end

if.then:                                          ; preds = %entry
  %vtable = load ptr, ptr %this, align 8, !tbaa !33
  %vfn = getelementptr inbounds i8, ptr %vtable, i64 24
  %1 = load ptr, ptr %vfn, align 8
  tail call void %1(ptr noundef nonnull align 8 dereferenceable(12) %this)
  br label %if.end

if.end:                                           ; preds = %if.then, %entry
  %switchStrike_ = getelementptr inbounds nuw i8, ptr %this, i64 440
  %2 = load double, ptr %switchStrike_, align 8, !tbaa !83
  ret double %2
}